target datalayout = "e-m:e-p270:32:32-p271:32:32-p272:64:64-i64:64-i128:128-f80:128-n8:16:32:64-S128"
target triple = "x86_64-pc-linux-gnu"

%"class.icu_77::MaybeStackArray" = type <{ ptr, i32, i8, [40 x i8], [3 x i8] }>
%"class.icu_77::CharString" = type { %"class.icu_77::MaybeStackArray", i32, [4 x i8] }

@_ZN6icu_7715MaybeStackArrayIcLi40EEC1EOS1_ = weak_odr unnamed_addr alias void (ptr, ptr), ptr @_ZN6icu_7715MaybeStackArrayIcLi40EEC2EOS1_

; Function Attrs: mustprogress nounwind uwtable
define void @_ZN6icu_7710CharStringC2EOS0_(ptr noundef nonnull align 8 dereferenceable(60) %0, ptr noundef nonnull align 8 dereferenceable(60) %1) unnamed_addr #0 align 2 {
  %3 = alloca ptr, align 8
  %4 = alloca ptr, align 8
  store ptr %0, ptr %3, align 8, !tbaa !23
  store ptr %1, ptr %4, align 8, !tbaa !23
  %5 = load ptr, ptr %3, align 8
  %6 = getelementptr inbounds nuw %"class.icu_77::CharString", ptr %5, i32 0, i32 0
  %7 = load ptr, ptr %4, align 8, !tbaa !23
  %8 = getelementptr inbounds nuw %"class.icu_77::CharString", ptr %7, i32 0, i32 0
  call void @_ZN6icu_7715MaybeStackArrayIcLi40EEC1EOS1_(ptr noundef nonnull align 8 dereferenceable(53) %6, ptr noundef nonnull align 8 dereferenceable(53) %8) #11
  %9 = getelementptr inbounds nuw %"class.icu_77::CharString", ptr %5, i32 0, i32 1
  %10 = load ptr, ptr %4, align 8, !tbaa !23
  %11 = getelementptr inbounds nuw %"class.icu_77::CharString", ptr %10, i32 0, i32 1
  %12 = load i32, ptr %11, align 8, !tbaa !25
  store i32 %12, ptr %9, align 8, !tbaa !25
  %13 = load ptr, ptr %4, align 8, !tbaa !23
  %14 = getelementptr inbounds nuw %"class.icu_77::CharString", ptr %13, i32 0, i32 1
  store i32 0, ptr %14, align 8, !tbaa !25
  ret void
}