; Function Attrs: mustprogress nounwind uwtable
define void @_ZN6icu_7710CharStringC2EOS0_(ptr noundef nonnull align 8 dereferenceable(60) %0, ptr noundef nonnull align 8 dereferenceable(60) %1) unnamed_addr #0 align 2 {
  tail call void @_ZN6icu_7715MaybeStackArrayIcLi40EEC1EOS1_(ptr noundef nonnull align 8 dereferenceable(53) %0, ptr noundef nonnull align 8 dereferenceable(53) %1) #18
  %3 = getelementptr inbounds nuw i8, ptr %0, i64 56
  %4 = getelementptr inbounds nuw i8, ptr %1, i64 56
  %5 = load i32, ptr %4, align 8, !tbaa !15
  store i32 %5, ptr %3, align 8, !tbaa !15
  store i32 0, ptr %4, align 8, !tbaa !15
  ret void
}